(i__main__
TreeNode
p0
(dp1
S'nodes'
p2
(lp3
(i__main__
TreeNode
p4
(dp5
g2
(lp6
sS'data'
p7
S'F'
p8
sba(i__main__
TreeNode
p9
(dp10
g2
(lp11
sg7
g8
sba(i__main__
TreeNode
p12
(dp13
g2
(lp14
sg7
g8
sba(i__main__
TreeNode
p15
(dp16
g2
(lp17
sg7
S'T'
p18
sba(i__main__
TreeNode
p19
(dp20
g2
(lp21
sg7
g18
sbasg7
S'1'
p22
sb.